#include <math.h>
#include <stdio.h>
#include <stdlib.h>
#include <string.h>

int main(){
    int i,j;
    double n=0,biao,l=1,len;
    char shuzu[3][501];
    scanf("%lf",&biao); 
    for(i=0;i<3;i++){
        scanf("%s",shuzu[i]);          
                  }
    len=1.0*strlen(shuzu[0]);
     if(strlen(shuzu[0])-strlen(shuzu[1])){ 
            printf("error"); 
           }
     else{                    
         for(i=0;i<len;i++){
             if(!((shuzu[0][i]=='A'||shuzu[0][i]=='G'||shuzu[0][i]=='C'||shuzu[0][i]=='T')&&(shuzu[1][i]=='A'||shuzu[1][i]=='G'||shuzu[1][i]=='C'||shuzu[1][i]=='T'))){
                   l=0;                                                                                                                                                   }
             if(shuzu[0][i]==shuzu[1][i])
                   n++;
                          }
        if(l){                  
           if((n/len)>biao)
               printf("yes");
           else
               printf("no");
           
               }
        else
           printf("error");
          }    
    return 0;
}